target datalayout = "e-m:e-p270:32:32-p271:32:32-p272:64:64-i64:64-i128:128-f80:128-n8:16:32:64-S128"
target triple = "x86_64-unknown-linux-gnu"

%struct.OptsVisitor = type { %struct.Visitor, ptr, i32, ptr, i32, ptr, %union.anon, %union.anon, ptr }
%struct.Visitor = type { ptr, ptr, ptr, ptr, ptr, ptr, ptr, ptr, ptr, ptr, ptr, ptr, ptr, ptr, ptr, ptr, ptr, ptr, ptr, ptr, i32, %struct.CompatPolicy, ptr, ptr }
%struct.CompatPolicy = type { i8, i32, i8, i32, i8, i32, i8, i32 }
%union.anon = type { i64 }

@.str.1 = private unnamed_addr constant [28 x i8] c"../qemu/qapi/opts-visitor.c\00", align 1
@.str.8 = private unnamed_addr constant [145 x i8] c"ov->list_mode == LM_IN_PROGRESS || ov->list_mode == LM_SIGNED_INTERVAL || ov->list_mode == LM_UNSIGNED_INTERVAL || ov->list_mode == LM_TRAVERSED\00", align 1
@__PRETTY_FUNCTION__.opts_end_list = private unnamed_addr constant [39 x i8] c"void opts_end_list(Visitor *, void **)\00", align 1

; Function Attrs: nounwind sspstrong uwtable
define internal ptr @to_ov(ptr noundef %v) #0 {
entry:
  %v.addr = alloca ptr, align 8
  %__mptr = alloca ptr, align 8
  %tmp = alloca ptr, align 8
  store ptr %v, ptr %v.addr, align 8
  %0 = load ptr, ptr %v.addr, align 8
  store ptr %0, ptr %__mptr, align 8
  %1 = load ptr, ptr %__mptr, align 8
  %add.ptr = getelementptr i8, ptr %1, i64 0
  store ptr %add.ptr, ptr %tmp, align 8
  %2 = load ptr, ptr %tmp, align 8
  ret ptr %2
}

; Function Attrs: nounwind sspstrong uwtable
define internal void @opts_end_list(ptr noundef %v, ptr noundef %obj) #0 {
entry:
  %v.addr = alloca ptr, align 8
  %obj.addr = alloca ptr, align 8
  %ov = alloca ptr, align 8
  store ptr %v, ptr %v.addr, align 8
  store ptr %obj, ptr %obj.addr, align 8
  %0 = load ptr, ptr %v.addr, align 8
  %call = call ptr @to_ov(ptr noundef %0)
  store ptr %call, ptr %ov, align 8
  %1 = load ptr, ptr %ov, align 8
  %list_mode = getelementptr inbounds %struct.OptsVisitor, ptr %1, i32 0, i32 4
  %2 = load i32, ptr %list_mode, align 8
  %cmp = icmp eq i32 %2, 1
  br i1 %cmp, label %if.then, label %lor.lhs.false

lor.lhs.false:                                    ; preds = %entry
  %3 = load ptr, ptr %ov, align 8
  %list_mode1 = getelementptr inbounds %struct.OptsVisitor, ptr %3, i32 0, i32 4
  %4 = load i32, ptr %list_mode1, align 8
  %cmp2 = icmp eq i32 %4, 2
  br i1 %cmp2, label %if.then, label %lor.lhs.false3

lor.lhs.false3:                                   ; preds = %lor.lhs.false
  %5 = load ptr, ptr %ov, align 8
  %list_mode4 = getelementptr inbounds %struct.OptsVisitor, ptr %5, i32 0, i32 4
  %6 = load i32, ptr %list_mode4, align 8
  %cmp5 = icmp eq i32 %6, 3
  br i1 %cmp5, label %if.then, label %lor.lhs.false6

lor.lhs.false6:                                   ; preds = %lor.lhs.false3
  %7 = load ptr, ptr %ov, align 8
  %list_mode7 = getelementptr inbounds %struct.OptsVisitor, ptr %7, i32 0, i32 4
  %8 = load i32, ptr %list_mode7, align 8
  %cmp8 = icmp eq i32 %8, 4
  br i1 %cmp8, label %if.then, label %if.else

if.then:                                          ; preds = %lor.lhs.false6, %lor.lhs.false3, %lor.lhs.false, %entry
  br label %if.end

if.else:                                          ; preds = %lor.lhs.false6
  call void @__assert_fail(ptr noundef @.str.8, ptr noundef @.str.1, i32 noundef 311, ptr noundef @__PRETTY_FUNCTION__.opts_end_list) #7
  unreachable

if.end:                                           ; preds = %if.then
  %9 = load ptr, ptr %ov, align 8
  %repeated_opts = getelementptr inbounds %struct.OptsVisitor, ptr %9, i32 0, i32 5
  store ptr null, ptr %repeated_opts, align 8
  %10 = load ptr, ptr %ov, align 8
  %list_mode9 = getelementptr inbounds %struct.OptsVisitor, ptr %10, i32 0, i32 4
  store i32 0, ptr %list_mode9, align 8
  ret void
}