; Function Attrs: nounwind sspstrong uwtable
define internal void @opts_end_list(ptr noundef captures(none) %v, ptr readnone captures(none) %obj) #0 {
entry:
  %list_mode = getelementptr inbounds nuw i8, ptr %v, i64 240
  %0 = load i32, ptr %list_mode, align 8
  %.off = add i32 %0, -1
  %switch = icmp ult i32 %.off, 4
  br i1 %switch, label %if.end, label %if.else

if.else:                                          ; preds = %entry
  tail call void @__assert_fail(ptr noundef nonnull @.str.8, ptr noundef nonnull @.str.1, i32 noundef 311, ptr noundef nonnull @__PRETTY_FUNCTION__.opts_end_list) #8
  unreachable

if.end:                                           ; preds = %entry
  %repeated_opts = getelementptr inbounds nuw i8, ptr %v, i64 248
  store ptr null, ptr %repeated_opts, align 8
  store i32 0, ptr %list_mode, align 8
  ret void
}